; Function Attrs: mustprogress nofree norecurse nosync nounwind null_pointer_is_valid sspstrong willreturn memory(read, inaccessiblemem: none) uwtable
define zeroext i1 @ftype_can_multiply(i32 noundef %0) local_unnamed_addr #4 {
  %2 = zext i32 %0 to i64
  %3 = getelementptr [48 x ptr], ptr @type_list, i64 0, i64 %2
  %4 = load ptr, ptr %3, align 8
  %5 = getelementptr inbounds nuw i8, ptr %4, i64 224
  %6 = load ptr, ptr %5, align 8
  %7 = icmp ne ptr %6, null
  ret i1 %7
}